; Function Attrs: nounwind uwtable
define void @lv_msgbox_close_async(ptr noundef %0) local_unnamed_addr #0 {
  %2 = tail call zeroext i1 @lv_obj_has_flag(ptr noundef %0, i32 noundef 33554432) #3
  br i1 %2, label %3, label %5

3:                                                ; preds = %1
  %4 = tail call ptr @lv_obj_get_parent(ptr noundef %0) #3
  br label %5

5:                                                ; preds = %1, %3
  %.sink = phi ptr [ %4, %3 ], [ %0, %1 ]
  tail call void @lv_obj_delete_async(ptr noundef %.sink) #3
  ret void
}